target datalayout = "e-m:e-p270:32:32-p271:32:32-p272:64:64-i64:64-i128:128-f80:128-n8:16:32:64-S128"
target triple = "x86_64-pc-linux-gnu"

%struct.DTableDesc = type { i8, i8, i8, i8 }
%struct.HUFv07_DEltX2 = type { i8, i8 }

; Function Attrs: nounwind uwtable
define internal i32 @ERR_isError(i64 noundef %0) #0 {
  %2 = alloca i64, align 8
  store i64 %0, ptr %2, align 8, !tbaa !3
  %3 = load i64, ptr %2, align 8, !tbaa !3
  %4 = icmp ugt i64 %3, -120
  %5 = zext i1 %4 to i32
  ret i32 %5
}

; Function Attrs: nounwind uwtable
define internal i32 @HUFv07_getDTableDesc(ptr noundef %0) #0 {
  %2 = alloca %struct.DTableDesc, align 1
  %3 = alloca ptr, align 8
  store ptr %0, ptr %3, align 8, !tbaa !10
  %4 = load ptr, ptr %3, align 8, !tbaa !10
  call void @llvm.memcpy.p0.p0.i64(ptr align 1 %2, ptr align 4 %4, i64 4, i1 false)
  %5 = load i32, ptr %2, align 1
  ret i32 %5
}

; Function Attrs: nounwind uwtable
define i32 @HUFv07_isError(i64 noundef %0) #0 {
  %2 = alloca i64, align 8
  store i64 %0, ptr %2, align 8, !tbaa !3
  %3 = load i64, ptr %2, align 8, !tbaa !3
  %4 = call i32 @ERR_isError(i64 noundef %3)
  ret i32 %4
}

; Function Attrs: nounwind uwtable
define i64 @HUFv07_readDTableX2(ptr noundef %0, ptr noundef %1, i64 noundef %2) #0 {
  %4 = alloca i64, align 8
  %5 = alloca ptr, align 8
  %6 = alloca ptr, align 8
  %7 = alloca i64, align 8
  %8 = alloca [256 x i8], align 16
  %9 = alloca [17 x i32], align 16
  %10 = alloca i32, align 4
  %11 = alloca i32, align 4
  %12 = alloca i64, align 8
  %13 = alloca ptr, align 8
  %14 = alloca ptr, align 8
  %15 = alloca i32, align 4
  %16 = alloca %struct.DTableDesc, align 1
  %17 = alloca i32, align 4
  %18 = alloca i32, align 4
  %19 = alloca i32, align 4
  %20 = alloca i32, align 4
  %21 = alloca i32, align 4
  %22 = alloca i32, align 4
  %23 = alloca i32, align 4
  %24 = alloca %struct.HUFv07_DEltX2, align 1
  store ptr %0, ptr %5, align 8, !tbaa !10
  store ptr %1, ptr %6, align 8, !tbaa !12
  store i64 %2, ptr %7, align 8, !tbaa !3
  call void @llvm.lifetime.start.p0(i64 256, ptr %8) #11
  call void @llvm.lifetime.start.p0(i64 68, ptr %9) #11
  call void @llvm.lifetime.start.p0(i64 4, ptr %10) #11
  store i32 0, ptr %10, align 4, !tbaa !15
  call void @llvm.lifetime.start.p0(i64 4, ptr %11) #11
  store i32 0, ptr %11, align 4, !tbaa !15
  call void @llvm.lifetime.start.p0(i64 8, ptr %12) #11
  call void @llvm.lifetime.start.p0(i64 8, ptr %13) #11
  %25 = load ptr, ptr %5, align 8, !tbaa !10
  %26 = getelementptr inbounds i32, ptr %25, i64 1
  store ptr %26, ptr %13, align 8, !tbaa !12
  call void @llvm.lifetime.start.p0(i64 8, ptr %14) #11
  %27 = load ptr, ptr %13, align 8, !tbaa !12
  store ptr %27, ptr %14, align 8, !tbaa !12
  %28 = getelementptr inbounds [256 x i8], ptr %8, i64 0, i64 0
  %29 = getelementptr inbounds [17 x i32], ptr %9, i64 0, i64 0
  %30 = load ptr, ptr %6, align 8, !tbaa !12
  %31 = load i64, ptr %7, align 8, !tbaa !3
  %32 = call i64 @HUFv07_readStats(ptr noundef %28, i64 noundef 256, ptr noundef %29, ptr noundef %11, ptr noundef %10, ptr noundef %30, i64 noundef %31)
  store i64 %32, ptr %12, align 8, !tbaa !3
  %33 = load i64, ptr %12, align 8, !tbaa !3
  %34 = call i32 @HUFv07_isError(i64 noundef %33)
  %35 = icmp ne i32 %34, 0
  br i1 %35, label %36, label %38

36:                                               ; preds = %3
  %37 = load i64, ptr %12, align 8, !tbaa !3
  store i64 %37, ptr %4, align 8
  store i32 1, ptr %15, align 4
  br label %136

38:                                               ; preds = %3
  call void @llvm.lifetime.start.p0(i64 4, ptr %16) #11
  %39 = load ptr, ptr %5, align 8, !tbaa !10
  %40 = call i32 @HUFv07_getDTableDesc(ptr noundef %39)
  store i32 %40, ptr %16, align 1
  %41 = load i32, ptr %10, align 4, !tbaa !15
  %42 = getelementptr inbounds nuw %struct.DTableDesc, ptr %16, i32 0, i32 0
  %43 = load i8, ptr %42, align 1, !tbaa !42
  %44 = zext i8 %43 to i32
  %45 = add nsw i32 %44, 1
  %46 = icmp ugt i32 %41, %45
  br i1 %46, label %47, label %48

47:                                               ; preds = %38
  store i64 -44, ptr %4, align 8
  store i32 1, ptr %15, align 4
  br label %54

48:                                               ; preds = %38
  %49 = getelementptr inbounds nuw %struct.DTableDesc, ptr %16, i32 0, i32 1
  store i8 0, ptr %49, align 1, !tbaa !44
  %50 = load i32, ptr %10, align 4, !tbaa !15
  %51 = trunc i32 %50 to i8
  %52 = getelementptr inbounds nuw %struct.DTableDesc, ptr %16, i32 0, i32 2
  store i8 %51, ptr %52, align 1, !tbaa !45
  %53 = load ptr, ptr %5, align 8, !tbaa !10
  call void @llvm.memcpy.p0.p0.i64(ptr align 4 %53, ptr align 1 %16, i64 4, i1 false)
  store i32 0, ptr %15, align 4
  br label %54

54:                                               ; preds = %48, %47
  call void @llvm.lifetime.end.p0(i64 4, ptr %16) #11
  %55 = load i32, ptr %15, align 4
  switch i32 %55, label %136 [
    i32 0, label %56
  ]

56:                                               ; preds = %54
  call void @llvm.lifetime.start.p0(i64 4, ptr %17) #11
  call void @llvm.lifetime.start.p0(i64 4, ptr %18) #11
  store i32 0, ptr %18, align 4, !tbaa !15
  store i32 1, ptr %17, align 4, !tbaa !15
  br label %57

57:                                               ; preds = %77, %56
  %58 = load i32, ptr %17, align 4, !tbaa !15
  %59 = load i32, ptr %10, align 4, !tbaa !15
  %60 = add i32 %59, 1
  %61 = icmp ult i32 %58, %60
  br i1 %61, label %62, label %80

62:                                               ; preds = %57
  call void @llvm.lifetime.start.p0(i64 4, ptr %19) #11
  %63 = load i32, ptr %18, align 4, !tbaa !15
  store i32 %63, ptr %19, align 4, !tbaa !15
  %64 = load i32, ptr %17, align 4, !tbaa !15
  %65 = zext i32 %64 to i64
  %66 = getelementptr inbounds nuw [17 x i32], ptr %9, i64 0, i64 %65
  %67 = load i32, ptr %66, align 4, !tbaa !15
  %68 = load i32, ptr %17, align 4, !tbaa !15
  %69 = sub i32 %68, 1
  %70 = shl i32 %67, %69
  %71 = load i32, ptr %18, align 4, !tbaa !15
  %72 = add i32 %71, %70
  store i32 %72, ptr %18, align 4, !tbaa !15
  %73 = load i32, ptr %19, align 4, !tbaa !15
  %74 = load i32, ptr %17, align 4, !tbaa !15
  %75 = zext i32 %74 to i64
  %76 = getelementptr inbounds nuw [17 x i32], ptr %9, i64 0, i64 %75
  store i32 %73, ptr %76, align 4, !tbaa !15
  call void @llvm.lifetime.end.p0(i64 4, ptr %19) #11
  br label %77

77:                                               ; preds = %62
  %78 = load i32, ptr %17, align 4, !tbaa !15
  %79 = add i32 %78, 1
  store i32 %79, ptr %17, align 4, !tbaa !15
  br label %57, !llvm.loop !46

80:                                               ; preds = %57
  call void @llvm.lifetime.end.p0(i64 4, ptr %18) #11
  call void @llvm.lifetime.end.p0(i64 4, ptr %17) #11
  call void @llvm.lifetime.start.p0(i64 4, ptr %20) #11
  store i32 0, ptr %20, align 4, !tbaa !15
  br label %81

81:                                               ; preds = %131, %80
  %82 = load i32, ptr %20, align 4, !tbaa !15
  %83 = load i32, ptr %11, align 4, !tbaa !15
  %84 = icmp ult i32 %82, %83
  br i1 %84, label %85, label %134

85:                                               ; preds = %81
  call void @llvm.lifetime.start.p0(i64 4, ptr %21) #11
  %86 = load i32, ptr %20, align 4, !tbaa !15
  %87 = zext i32 %86 to i64
  %88 = getelementptr inbounds nuw [256 x i8], ptr %8, i64 0, i64 %87
  %89 = load i8, ptr %88, align 1, !tbaa !25
  %90 = zext i8 %89 to i32
  store i32 %90, ptr %21, align 4, !tbaa !15
  call void @llvm.lifetime.start.p0(i64 4, ptr %22) #11
  %91 = load i32, ptr %21, align 4, !tbaa !15
  %92 = shl i32 1, %91
  %93 = ashr i32 %92, 1
  store i32 %93, ptr %22, align 4, !tbaa !15
  call void @llvm.lifetime.start.p0(i64 4, ptr %23) #11
  call void @llvm.lifetime.start.p0(i64 2, ptr %24) #11
  %94 = load i32, ptr %20, align 4, !tbaa !15
  %95 = trunc i32 %94 to i8
  %96 = getelementptr inbounds nuw %struct.HUFv07_DEltX2, ptr %24, i32 0, i32 0
  store i8 %95, ptr %96, align 1, !tbaa !47
  %97 = load i32, ptr %10, align 4, !tbaa !15
  %98 = add i32 %97, 1
  %99 = load i32, ptr %21, align 4, !tbaa !15
  %100 = sub i32 %98, %99
  %101 = trunc i32 %100 to i8
  %102 = getelementptr inbounds nuw %struct.HUFv07_DEltX2, ptr %24, i32 0, i32 1
  store i8 %101, ptr %102, align 1, !tbaa !49
  %103 = load i32, ptr %21, align 4, !tbaa !15
  %104 = zext i32 %103 to i64
  %105 = getelementptr inbounds nuw [17 x i32], ptr %9, i64 0, i64 %104
  %106 = load i32, ptr %105, align 4, !tbaa !15
  store i32 %106, ptr %23, align 4, !tbaa !15
  br label %107

107:                                              ; preds = %121, %85
  %108 = load i32, ptr %23, align 4, !tbaa !15
  %109 = load i32, ptr %21, align 4, !tbaa !15
  %110 = zext i32 %109 to i64
  %111 = getelementptr inbounds nuw [17 x i32], ptr %9, i64 0, i64 %110
  %112 = load i32, ptr %111, align 4, !tbaa !15
  %113 = load i32, ptr %22, align 4, !tbaa !15
  %114 = add i32 %112, %113
  %115 = icmp ult i32 %108, %114
  br i1 %115, label %116, label %124

116:                                              ; preds = %107
  %117 = load ptr, ptr %14, align 8, !tbaa !12
  %118 = load i32, ptr %23, align 4, !tbaa !15
  %119 = zext i32 %118 to i64
  %120 = getelementptr inbounds nuw %struct.HUFv07_DEltX2, ptr %117, i64 %119
  call void @llvm.memcpy.p0.p0.i64(ptr align 1 %120, ptr align 1 %24, i64 2, i1 false), !tbaa.struct !50
  br label %121

121:                                              ; preds = %116
  %122 = load i32, ptr %23, align 4, !tbaa !15
  %123 = add i32 %122, 1
  store i32 %123, ptr %23, align 4, !tbaa !15
  br label %107, !llvm.loop !51

124:                                              ; preds = %107
  %125 = load i32, ptr %22, align 4, !tbaa !15
  %126 = load i32, ptr %21, align 4, !tbaa !15
  %127 = zext i32 %126 to i64
  %128 = getelementptr inbounds nuw [17 x i32], ptr %9, i64 0, i64 %127
  %129 = load i32, ptr %128, align 4, !tbaa !15
  %130 = add i32 %129, %125
  store i32 %130, ptr %128, align 4, !tbaa !15
  call void @llvm.lifetime.end.p0(i64 2, ptr %24) #11
  call void @llvm.lifetime.end.p0(i64 4, ptr %23) #11
  call void @llvm.lifetime.end.p0(i64 4, ptr %22) #11
  call void @llvm.lifetime.end.p0(i64 4, ptr %21) #11
  br label %131

131:                                              ; preds = %124
  %132 = load i32, ptr %20, align 4, !tbaa !15
  %133 = add i32 %132, 1
  store i32 %133, ptr %20, align 4, !tbaa !15
  br label %81, !llvm.loop !52

134:                                              ; preds = %81
  call void @llvm.lifetime.end.p0(i64 4, ptr %20) #11
  %135 = load i64, ptr %12, align 8, !tbaa !3
  store i64 %135, ptr %4, align 8
  store i32 1, ptr %15, align 4
  br label %136

136:                                              ; preds = %134, %54, %36
  call void @llvm.lifetime.end.p0(i64 8, ptr %14) #11
  call void @llvm.lifetime.end.p0(i64 8, ptr %13) #11
  call void @llvm.lifetime.end.p0(i64 8, ptr %12) #11
  call void @llvm.lifetime.end.p0(i64 4, ptr %11) #11
  call void @llvm.lifetime.end.p0(i64 4, ptr %10) #11
  call void @llvm.lifetime.end.p0(i64 68, ptr %9) #11
  call void @llvm.lifetime.end.p0(i64 256, ptr %8) #11
  %137 = load i64, ptr %4, align 8
  ret i64 %137
}