; Function Attrs: nofree norecurse nosync nounwind memory(argmem: readwrite) uwtable
define range(i64 1, 0) i64 @HUFv07_readDTableX2(ptr noundef captures(none) %0, ptr noundef %1, i64 noundef %2) local_unnamed_addr #2 {
  %4 = alloca [256 x i8], align 16
  %5 = alloca [17 x i32], align 16
  %6 = alloca i32, align 4
  %7 = alloca i32, align 4
  call void @llvm.lifetime.start.p0(i64 256, ptr nonnull %4) #26
  call void @llvm.lifetime.start.p0(i64 68, ptr nonnull %5) #26
  call void @llvm.lifetime.start.p0(i64 4, ptr nonnull %6) #26
  store i32 0, ptr %6, align 4, !tbaa !3
  call void @llvm.lifetime.start.p0(i64 4, ptr nonnull %7) #26
  store i32 0, ptr %7, align 4, !tbaa !3
  %8 = getelementptr inbounds nuw i8, ptr %0, i64 4
  %9 = call i64 @HUFv07_readStats(ptr noundef nonnull %4, i64 noundef 256, ptr noundef nonnull %5, ptr noundef nonnull %7, ptr noundef nonnull %6, ptr noundef %1, i64 noundef %2)
  %10 = icmp ult i64 %9, -119
  br i1 %10, label %11, label %.critedge

11:                                               ; preds = %3
  %.val = load i32, ptr %0, align 4
  %12 = load i32, ptr %6, align 4, !tbaa !3
  %13 = and i32 %.val, 255
  %14 = add nuw nsw i32 %13, 1
  %.not41 = icmp ugt i32 %12, %14
  br i1 %.not41, label %.critedge, label %15

15:                                               ; preds = %11
  %.sroa.022.0.extract.trunc = trunc i32 %.val to i8
  %.sroa.7.0.extract.shift = lshr i32 %.val, 24
  %.sroa.7.0.extract.trunc = trunc nuw i32 %.sroa.7.0.extract.shift to i8
  %16 = trunc i32 %12 to i8
  store i8 %.sroa.022.0.extract.trunc, ptr %0, align 4
  %.sroa.5.0..sroa_idx = getelementptr inbounds nuw i8, ptr %0, i64 1
  store i8 0, ptr %.sroa.5.0..sroa_idx, align 1
  %.sroa.6.0..sroa_idx = getelementptr inbounds nuw i8, ptr %0, i64 2
  store i8 %16, ptr %.sroa.6.0..sroa_idx, align 2
  %.sroa.7.0..sroa_idx = getelementptr inbounds nuw i8, ptr %0, i64 3
  store i8 %.sroa.7.0.extract.trunc, ptr %.sroa.7.0..sroa_idx, align 1
  %.not42 = icmp eq i32 %12, 0
  br i1 %.not42, label %.preheader, label %.lr.ph.preheader

.lr.ph.preheader:                                 ; preds = %15
  %17 = add nuw nsw i32 %12, 1
  br label %.lr.ph

.preheader:                                       ; preds = %.lr.ph, %15
  %18 = load i32, ptr %7, align 4, !tbaa !3
  %.not = icmp eq i32 %18, 0
  br i1 %.not, label %.critedge, label %.lr.ph48

.lr.ph48:                                         ; preds = %.preheader
  %19 = add i8 %16, 1
  %wide.trip.count57 = zext i32 %18 to i64
  br label %26

.lr.ph:                                           ; preds = %.lr.ph.preheader, %.lr.ph
  %indvars.iv = phi i64 [ 1, %.lr.ph.preheader ], [ %indvars.iv.next, %.lr.ph ]
  %.03843 = phi i32 [ 0, %.lr.ph.preheader ], [ %25, %.lr.ph ]
  %20 = getelementptr inbounds nuw [17 x i32], ptr %5, i64 0, i64 %indvars.iv
  %21 = load i32, ptr %20, align 4, !tbaa !3
  %22 = trunc i64 %indvars.iv to i32
  %23 = add i32 %22, -1
  %24 = shl i32 %21, %23
  %25 = add i32 %24, %.03843
  store i32 %.03843, ptr %20, align 4, !tbaa !3
  %indvars.iv.next = add nuw nsw i64 %indvars.iv, 1
  %lftr.wideiv = trunc i64 %indvars.iv.next to i32
  %exitcond.not = icmp eq i32 %17, %lftr.wideiv
  br i1 %exitcond.not, label %.preheader, label %.lr.ph, !llvm.loop !31

26:                                               ; preds = %.lr.ph48, %._crit_edge
  %indvars.iv54 = phi i64 [ 0, %.lr.ph48 ], [ %indvars.iv.next55, %._crit_edge ]
  %27 = getelementptr inbounds nuw [256 x i8], ptr %4, i64 0, i64 %indvars.iv54
  %28 = load i8, ptr %27, align 1, !tbaa !14
  %29 = zext nneg i8 %28 to i32
  %30 = shl nuw i32 1, %29
  %31 = ashr i32 %30, 1
  %32 = trunc i64 %indvars.iv54 to i8
  %33 = sub i8 %19, %28
  %34 = zext i8 %28 to i64
  %35 = getelementptr inbounds nuw [17 x i32], ptr %5, i64 0, i64 %34
  %36 = load i32, ptr %35, align 4, !tbaa !3
  %37 = add i32 %31, %36
  %38 = icmp ult i32 %36, %37
  br i1 %38, label %.lr.ph46.preheader, label %._crit_edge

.lr.ph46.preheader:                               ; preds = %26
  %39 = zext i32 %36 to i64
  %wide.trip.count = zext i32 %37 to i64
  br label %.lr.ph46

.lr.ph46:                                         ; preds = %.lr.ph46.preheader, %.lr.ph46
  %indvars.iv50 = phi i64 [ %39, %.lr.ph46.preheader ], [ %indvars.iv.next51, %.lr.ph46 ]
  %40 = getelementptr inbounds nuw %struct.HUFv07_DEltX2, ptr %8, i64 %indvars.iv50
  store i8 %32, ptr %40, align 1, !tbaa !14
  %.sroa.4.0..sroa_idx = getelementptr inbounds nuw i8, ptr %40, i64 1
  store i8 %33, ptr %.sroa.4.0..sroa_idx, align 1, !tbaa !14
  %indvars.iv.next51 = add nuw nsw i64 %indvars.iv50, 1
  %exitcond53.not = icmp eq i64 %indvars.iv.next51, %wide.trip.count
  br i1 %exitcond53.not, label %._crit_edge, label %.lr.ph46, !llvm.loop !32

._crit_edge:                                      ; preds = %.lr.ph46, %26
  store i32 %37, ptr %35, align 4, !tbaa !3
  %indvars.iv.next55 = add nuw nsw i64 %indvars.iv54, 1
  %exitcond58.not = icmp eq i64 %indvars.iv.next55, %wide.trip.count57
  br i1 %exitcond58.not, label %.critedge, label %26, !llvm.loop !33

.critedge:                                        ; preds = %._crit_edge, %.preheader, %11, %3
  %.0 = phi i64 [ %9, %3 ], [ -44, %11 ], [ %9, %.preheader ], [ %9, %._crit_edge ]
  call void @llvm.lifetime.end.p0(i64 4, ptr nonnull %7) #26
  call void @llvm.lifetime.end.p0(i64 4, ptr nonnull %6) #26
  call void @llvm.lifetime.end.p0(i64 68, ptr nonnull %5) #26
  call void @llvm.lifetime.end.p0(i64 256, ptr nonnull %4) #26
  ret i64 %.0
}